target datalayout = "e-m:e-p270:32:32-p271:32:32-p272:64:64-i64:64-i128:128-f80:128-n8:16:32:64-S128"
target triple = "x86_64-pc-linux-gnu"

%struct.lex_context = type { i16, [2 x i8] }
%struct.parser_params = type { ptr, ptr, %struct.anon.12, i64, i64, i32, i32, i32, i32, i32, ptr, ptr, ptr, ptr, i32, i32, ptr, i64, ptr, ptr, ptr, ptr, i64, i64, %struct.anon.13, ptr, i32, ptr, i32, i64, %struct.lex_context, ptr, ptr, ptr, i32, i64, ptr, ptr, i32, ptr }
%struct.anon.12 = type { ptr, ptr, ptr, %struct.parser_string_buffer, ptr, ptr, ptr, ptr, ptr, ptr, i32, i32, i32, i32 }
%struct.parser_string_buffer = type { ptr, ptr }
%struct.anon.13 = type { ptr, i32, i32, i32, i32 }

; Function Attrs: inlinehint nounwind sspstrong uwtable
define internal i32 @parse_isspace(i32 noundef %0) #2 {
  %2 = alloca i32, align 4
  store i32 %0, ptr %2, align 4, !tbaa !34
  %3 = load i32, ptr %2, align 4, !tbaa !34
  %4 = icmp eq i32 %3, 32
  br i1 %4, label %13, label %5

5:                                                ; preds = %1
  %6 = load i32, ptr %2, align 4, !tbaa !34
  %7 = icmp sle i32 9, %6
  br i1 %7, label %8, label %11

8:                                                ; preds = %5
  %9 = load i32, ptr %2, align 4, !tbaa !34
  %10 = icmp sle i32 %9, 13
  br label %11

11:                                               ; preds = %8, %5
  %12 = phi i1 [ false, %5 ], [ %10, %8 ]
  br label %13

13:                                               ; preds = %11, %1
  %14 = phi i1 [ true, %1 ], [ %12, %11 ]
  %15 = zext i1 %14 to i32
  ret i32 %15
}

; Function Attrs: nounwind sspstrong uwtable
define internal i32 @looking_at_eol_p(ptr noundef %0) #0 {
  %2 = alloca i32, align 4
  %3 = alloca ptr, align 8
  %4 = alloca ptr, align 8
  %5 = alloca i32, align 4
  %6 = alloca i32, align 4
  %7 = alloca i32, align 4
  store ptr %0, ptr %3, align 8, !tbaa !7
  call void @llvm.lifetime.start.p0(i64 8, ptr %4) #26
  %8 = load ptr, ptr %3, align 8, !tbaa !7
  %9 = getelementptr inbounds nuw %struct.parser_params, ptr %8, i32 0, i32 2
  %10 = getelementptr inbounds nuw %struct.anon.12, ptr %9, i32 0, i32 7
  %11 = load ptr, ptr %10, align 8, !tbaa !161
  store ptr %11, ptr %4, align 8, !tbaa !19
  br label %12

12:                                               ; preds = %45, %1
  %13 = load ptr, ptr %4, align 8, !tbaa !19
  %14 = getelementptr i8, ptr %13, i64 0
  %15 = load ptr, ptr %3, align 8, !tbaa !7
  %16 = getelementptr inbounds nuw %struct.parser_params, ptr %15, i32 0, i32 2
  %17 = getelementptr inbounds nuw %struct.anon.12, ptr %16, i32 0, i32 8
  %18 = load ptr, ptr %17, align 8, !tbaa !448
  %19 = icmp uge ptr %14, %18
  %20 = xor i1 %19, true
  br i1 %20, label %21, label %46

21:                                               ; preds = %12
  call void @llvm.lifetime.start.p0(i64 4, ptr %5) #26
  %22 = load ptr, ptr %4, align 8, !tbaa !19
  %23 = getelementptr i8, ptr %22, i32 1
  store ptr %23, ptr %4, align 8, !tbaa !19
  %24 = load i8, ptr %22, align 1, !tbaa !27
  %25 = zext i8 %24 to i32
  store i32 %25, ptr %5, align 4, !tbaa !34
  call void @llvm.lifetime.start.p0(i64 4, ptr %6) #26
  %26 = load i32, ptr %5, align 4, !tbaa !34
  %27 = icmp eq i32 %26, 10
  br i1 %27, label %31, label %28

28:                                               ; preds = %21
  %29 = load i32, ptr %5, align 4, !tbaa !34
  %30 = icmp eq i32 %29, 35
  br label %31

31:                                               ; preds = %28, %21
  %32 = phi i1 [ true, %21 ], [ %30, %28 ]
  %33 = zext i1 %32 to i32
  store i32 %33, ptr %6, align 4, !tbaa !34
  %34 = load i32, ptr %6, align 4, !tbaa !34
  %35 = icmp ne i32 %34, 0
  br i1 %35, label %40, label %36

36:                                               ; preds = %31
  %37 = load i32, ptr %5, align 4, !tbaa !34
  %38 = call i32 @parse_isspace(i32 noundef %37)
  %39 = icmp ne i32 %38, 0
  br i1 %39, label %42, label %40

40:                                               ; preds = %36, %31
  %41 = load i32, ptr %6, align 4, !tbaa !34
  store i32 %41, ptr %2, align 4
  store i32 1, ptr %7, align 4
  br label %43

42:                                               ; preds = %36
  store i32 0, ptr %7, align 4
  br label %43

43:                                               ; preds = %42, %40
  call void @llvm.lifetime.end.p0(i64 4, ptr %6) #26
  call void @llvm.lifetime.end.p0(i64 4, ptr %5) #26
  %44 = load i32, ptr %7, align 4
  switch i32 %44, label %47 [
    i32 0, label %45
  ]

45:                                               ; preds = %43
  br label %12, !llvm.loop !449

46:                                               ; preds = %12
  store i32 1, ptr %2, align 4
  store i32 1, ptr %7, align 4
  br label %47

47:                                               ; preds = %46, %43
  call void @llvm.lifetime.end.p0(i64 8, ptr %4) #26
  %48 = load i32, ptr %2, align 4
  ret i32 %48
}