; Function Attrs: nofree norecurse nosync nounwind sspstrong memory(read, inaccessiblemem: none) uwtable
define internal fastcc i32 @looking_at_eol_p(ptr noundef readonly captures(none) %0) unnamed_addr #8 {
  %2 = getelementptr inbounds nuw i8, ptr %0, i64 80
  %3 = load ptr, ptr %2, align 8, !tbaa !184
  %4 = getelementptr inbounds nuw i8, ptr %0, i64 88
  %5 = load ptr, ptr %4, align 8, !tbaa !420
  %.not21 = icmp ult ptr %3, %5
  br i1 %.not21, label %.lr.ph, label %.thread

.lr.ph:                                           ; preds = %1, %.backedge
  %.01023 = phi i32 [ %spec.select, %.backedge ], [ undef, %1 ]
  %.01122 = phi ptr [ %15, %.backedge ], [ %3, %1 ]
  %6 = load i8, ptr %.01122, align 1, !tbaa !25
  %7 = icmp eq i8 %6, 10
  %8 = icmp eq i8 %6, 35
  %9 = or i1 %7, %8
  %10 = zext i1 %9 to i32
  switch i8 %6, label %11 [
    i8 35, label %.thread
    i8 10, label %.thread
  ]

11:                                               ; preds = %.lr.ph
  %12 = icmp eq i8 %6, 32
  %13 = add i8 %6, -9
  %14 = icmp ult i8 %13, 5
  %narrow.i.not.not = or i1 %12, %14
  %spec.select = select i1 %narrow.i.not.not, i32 %.01023, i32 %10
  switch i8 %6, label %.thread [
    i8 32, label %.backedge
    i8 13, label %.backedge
    i8 12, label %.backedge
    i8 11, label %.backedge
    i8 9, label %.backedge
  ]

.backedge:                                        ; preds = %11, %11, %11, %11, %11
  %15 = getelementptr i8, ptr %.01122, i64 1
  %exitcond.not = icmp eq ptr %15, %5
  br i1 %exitcond.not, label %.thread, label %.lr.ph

.thread:                                          ; preds = %.backedge, %.lr.ph, %.lr.ph, %11, %1
  %.2 = phi i32 [ 1, %1 ], [ %spec.select, %11 ], [ %10, %.lr.ph ], [ %10, %.lr.ph ], [ 1, %.backedge ]
  ret i32 %.2
}